; Function Attrs: nounwind uwtable
define noundef nonnull ptr @l_Lean_Meta_DiscrTree_Key_ctorIdx___boxed(ptr noundef %0) local_unnamed_addr #2 {
  %2 = ptrtoint ptr %0 to i64
  %3 = and i64 %2, 1
  %.not.i.i = icmp eq i64 %3, 0
  br i1 %.not.i.i, label %7, label %4

4:                                                ; preds = %1
  %5 = lshr i64 %2, 1
  %6 = trunc i64 %5 to i32
  br label %lean_obj_tag.exit.i

7:                                                ; preds = %1
  %8 = getelementptr i8, ptr %0, i64 4
  %.val.i.i = load i32, ptr %8, align 4
  %9 = lshr i32 %.val.i.i, 24
  br label %lean_obj_tag.exit.i

lean_obj_tag.exit.i:                              ; preds = %7, %4
  %.0.i.i = phi i32 [ %6, %4 ], [ %9, %7 ]
  switch i32 %.0.i.i, label %15 [
    i32 0, label %l_Lean_Meta_DiscrTree_Key_ctorIdx.exit
    i32 1, label %10
    i32 2, label %11
    i32 3, label %12
    i32 4, label %13
    i32 5, label %14
  ]

10:                                               ; preds = %lean_obj_tag.exit.i
  br label %l_Lean_Meta_DiscrTree_Key_ctorIdx.exit

11:                                               ; preds = %lean_obj_tag.exit.i
  br label %l_Lean_Meta_DiscrTree_Key_ctorIdx.exit

12:                                               ; preds = %lean_obj_tag.exit.i
  br label %l_Lean_Meta_DiscrTree_Key_ctorIdx.exit

13:                                               ; preds = %lean_obj_tag.exit.i
  br label %l_Lean_Meta_DiscrTree_Key_ctorIdx.exit

14:                                               ; preds = %lean_obj_tag.exit.i
  br label %l_Lean_Meta_DiscrTree_Key_ctorIdx.exit

15:                                               ; preds = %lean_obj_tag.exit.i
  br label %l_Lean_Meta_DiscrTree_Key_ctorIdx.exit

l_Lean_Meta_DiscrTree_Key_ctorIdx.exit:           ; preds = %lean_obj_tag.exit.i, %10, %11, %12, %13, %14, %15
  %.0.i = phi ptr [ inttoptr (i64 13 to ptr), %15 ], [ inttoptr (i64 11 to ptr), %14 ], [ inttoptr (i64 3 to ptr), %13 ], [ inttoptr (i64 1 to ptr), %12 ], [ inttoptr (i64 5 to ptr), %11 ], [ inttoptr (i64 7 to ptr), %10 ], [ inttoptr (i64 9 to ptr), %lean_obj_tag.exit.i ]
  br i1 %.not.i.i, label %16, label %lean_dec.exit

16:                                               ; preds = %l_Lean_Meta_DiscrTree_Key_ctorIdx.exit
  %17 = load i32, ptr %0, align 4, !tbaa !4
  %18 = icmp sgt i32 %17, 1
  br i1 %18, label %19, label %21, !prof !11

19:                                               ; preds = %16
  %20 = add nsw i32 %17, -1
  store i32 %20, ptr %0, align 4, !tbaa !4
  br label %lean_dec.exit

21:                                               ; preds = %16
  %.not.i = icmp eq i32 %17, 0
  br i1 %.not.i, label %lean_dec.exit, label %22

22:                                               ; preds = %21
  tail call void @lean_dec_ref_cold(ptr noundef nonnull %0) #7
  br label %lean_dec.exit

lean_dec.exit:                                    ; preds = %22, %21, %19, %l_Lean_Meta_DiscrTree_Key_ctorIdx.exit
  ret ptr %.0.i
}